target datalayout = "e-m:e-p270:32:32-p271:32:32-p272:64:64-i64:64-i128:128-f80:128-n8:16:32:64-S128"
target triple = "x86_64-pc-linux-gnu"

%"struct.std::array" = type { [2 x i64] }
%"class.arrow::GenericBasicDecimal" = type { %"struct.std::array" }
%"class.arrow::BasicDecimal128" = type { %"class.arrow::GenericBasicDecimal" }

; Function Attrs: mustprogress nounwind uwtable
define weak_odr void @_ZN5arrow19GenericBasicDecimalINS_15BasicDecimal128ELi128ELi2EEC2ERKSt5arrayImLm2EE(ptr noundef nonnull align 8 dereferenceable(16) %0, ptr noundef nonnull align 8 dereferenceable(16) %1) unnamed_addr #0 comdat($_ZN5arrow19GenericBasicDecimalINS_15BasicDecimal128ELi128ELi2EEC5ERKSt5arrayImLm2EE) align 2 {
  %3 = alloca ptr, align 8
  %4 = alloca ptr, align 8
  store ptr %0, ptr %3, align 8, !tbaa !3
  store ptr %1, ptr %4, align 8, !tbaa !10
  %5 = load ptr, ptr %3, align 8
  %6 = getelementptr inbounds nuw %"class.arrow::GenericBasicDecimal", ptr %5, i32 0, i32 0
  %7 = load ptr, ptr %4, align 8, !tbaa !10
  call void @llvm.memcpy.p0.p0.i64(ptr align 8 %6, ptr align 8 %7, i64 16, i1 false), !tbaa.struct !12
  ret void
}

; Function Attrs: mustprogress nounwind uwtable
define linkonce_odr noundef nonnull align 8 dereferenceable(8) ptr @_ZNSt14__array_traitsImLm2EE6_S_refERA2_Kmm(ptr noundef nonnull align 8 dereferenceable(16) %0, i64 noundef %1) #0 comdat align 2 {
  %3 = alloca ptr, align 8
  %4 = alloca i64, align 8
  store ptr %0, ptr %3, align 8, !tbaa !239
  store i64 %1, ptr %4, align 8, !tbaa !8
  %5 = load ptr, ptr %3, align 8, !tbaa !239
  %6 = load i64, ptr %4, align 8, !tbaa !8
  %7 = getelementptr inbounds nuw [2 x i64], ptr %5, i64 0, i64 %6
  ret ptr %7
}

; Function Attrs: inlinehint mustprogress nounwind uwtable
define linkonce_odr void @_ZN5arrow15BasicDecimal128CI2NS_19GenericBasicDecimalIS0_Li128ELi2EEEERKSt5arrayImLm2EE(ptr noundef nonnull align 8 dereferenceable(16) %0, ptr noundef nonnull align 8 dereferenceable(16) %1) unnamed_addr #3 comdat align 2 {
  %3 = alloca ptr, align 8
  %4 = alloca ptr, align 8
  store ptr %0, ptr %3, align 8, !tbaa !154
  store ptr %1, ptr %4, align 8, !tbaa !10
  %5 = load ptr, ptr %3, align 8
  %6 = load ptr, ptr %4, align 8
  call void @_ZN5arrow19GenericBasicDecimalINS_15BasicDecimal128ELi128ELi2EEC2ERKSt5arrayImLm2EE(ptr noundef nonnull align 8 dereferenceable(16) %5, ptr noundef nonnull align 8 dereferenceable(16) %6) #12
  ret void
}

; Function Attrs: mustprogress nounwind uwtable
define linkonce_odr noundef nonnull align 8 dereferenceable(8) ptr @_ZNKSt5arrayImLm2EEixEm(ptr noundef nonnull align 8 dereferenceable(16) %0, i64 noundef %1) #0 comdat align 2 {
  %3 = alloca ptr, align 8
  %4 = alloca i64, align 8
  store ptr %0, ptr %3, align 8, !tbaa !10
  store i64 %1, ptr %4, align 8, !tbaa !8
  %5 = load ptr, ptr %3, align 8
  %6 = getelementptr inbounds nuw %"struct.std::array", ptr %5, i32 0, i32 0
  %7 = load i64, ptr %4, align 8, !tbaa !8
  %8 = call noundef nonnull align 8 dereferenceable(8) ptr @_ZNSt14__array_traitsImLm2EE6_S_refERA2_Kmm(ptr noundef nonnull align 8 dereferenceable(16) %6, i64 noundef %7) #12
  ret ptr %8
}

; Function Attrs: mustprogress nounwind uwtable
define linkonce_odr void @_ZN5arrow15BasicDecimal128C2Elm(ptr noundef nonnull align 8 dereferenceable(16) %0, i64 noundef %1, i64 noundef %2) unnamed_addr #0 comdat align 2 {
  %4 = alloca ptr, align 8
  %5 = alloca i64, align 8
  %6 = alloca i64, align 8
  %7 = alloca %"struct.std::array", align 8
  store ptr %0, ptr %4, align 8, !tbaa !154
  store i64 %1, ptr %5, align 8, !tbaa !8
  store i64 %2, ptr %6, align 8, !tbaa !8
  %8 = load ptr, ptr %4, align 8
  call void @llvm.lifetime.start.p0(i64 16, ptr %7) #12
  %9 = getelementptr inbounds nuw %"struct.std::array", ptr %7, i32 0, i32 0
  %10 = load i64, ptr %6, align 8, !tbaa !8
  store i64 %10, ptr %9, align 8, !tbaa !8
  %11 = getelementptr inbounds i64, ptr %9, i64 1
  %12 = load i64, ptr %5, align 8, !tbaa !8
  store i64 %12, ptr %11, align 8, !tbaa !8
  call void @_ZN5arrow15BasicDecimal128CI2NS_19GenericBasicDecimalIS0_Li128ELi2EEEERKSt5arrayImLm2EE(ptr noundef nonnull align 8 dereferenceable(16) %8, ptr noundef nonnull align 8 dereferenceable(16) %7) #12
  call void @llvm.lifetime.end.p0(i64 16, ptr %7) #12
  ret void
}

; Function Attrs: mustprogress nounwind uwtable
define linkonce_odr noundef i64 @_ZNK5arrow15BasicDecimal1288low_bitsEv(ptr noundef nonnull align 8 dereferenceable(16) %0) #0 comdat align 2 {
  %2 = alloca ptr, align 8
  store ptr %0, ptr %2, align 8, !tbaa !154
  %3 = load ptr, ptr %2, align 8
  %4 = getelementptr inbounds nuw %"class.arrow::GenericBasicDecimal", ptr %3, i32 0, i32 0
  %5 = call noundef nonnull align 8 dereferenceable(8) ptr @_ZNKSt5arrayImLm2EEixEm(ptr noundef nonnull align 8 dereferenceable(16) %4, i64 noundef 0) #12
  %6 = load i64, ptr %5, align 8, !tbaa !8
  ret i64 %6
}

; Function Attrs: mustprogress nounwind uwtable
define linkonce_odr noundef i64 @_ZN5arrow8internal18SafeSignedSubtractIlEET_S2_S2_(i64 noundef %0, i64 noundef %1) #0 comdat {
  %3 = alloca i64, align 8
  %4 = alloca i64, align 8
  store i64 %0, ptr %3, align 8, !tbaa !8
  store i64 %1, ptr %4, align 8, !tbaa !8
  %5 = load i64, ptr %3, align 8, !tbaa !8
  %6 = load i64, ptr %4, align 8, !tbaa !8
  %7 = sub i64 %5, %6
  ret i64 %7
}

; Function Attrs: mustprogress nounwind uwtable
define linkonce_odr noundef i64 @_ZNK5arrow15BasicDecimal1289high_bitsEv(ptr noundef nonnull align 8 dereferenceable(16) %0) #0 comdat align 2 {
  %2 = alloca ptr, align 8
  store ptr %0, ptr %2, align 8, !tbaa !154
  %3 = load ptr, ptr %2, align 8
  %4 = getelementptr inbounds nuw %"class.arrow::GenericBasicDecimal", ptr %3, i32 0, i32 0
  %5 = call noundef nonnull align 8 dereferenceable(8) ptr @_ZNKSt5arrayImLm2EEixEm(ptr noundef nonnull align 8 dereferenceable(16) %4, i64 noundef 1) #12
  %6 = load i64, ptr %5, align 8, !tbaa !8
  ret i64 %6
}

; Function Attrs: mustprogress uwtable
define noundef nonnull align 8 dereferenceable(16) ptr @_ZN5arrow15BasicDecimal128mIERKS0_(ptr noundef nonnull align 8 dereferenceable(16) %0, ptr noundef nonnull align 8 dereferenceable(16) %1) #6 align 2 {
  %3 = alloca ptr, align 8
  %4 = alloca ptr, align 8
  %5 = alloca i64, align 8
  %6 = alloca i64, align 8
  %7 = alloca %"class.arrow::BasicDecimal128", align 8
  store ptr %0, ptr %3, align 8, !tbaa !154
  store ptr %1, ptr %4, align 8, !tbaa !154
  %8 = load ptr, ptr %3, align 8
  call void @llvm.lifetime.start.p0(i64 8, ptr %5) #12
  %9 = call noundef i64 @_ZNK5arrow15BasicDecimal1289high_bitsEv(ptr noundef nonnull align 8 dereferenceable(16) %8)
  %10 = load ptr, ptr %4, align 8, !tbaa !154
  %11 = call noundef i64 @_ZNK5arrow15BasicDecimal1289high_bitsEv(ptr noundef nonnull align 8 dereferenceable(16) %10)
  %12 = call noundef i64 @_ZN5arrow8internal18SafeSignedSubtractIlEET_S2_S2_(i64 noundef %9, i64 noundef %11)
  store i64 %12, ptr %5, align 8, !tbaa !8
  call void @llvm.lifetime.start.p0(i64 8, ptr %6) #12
  %13 = call noundef i64 @_ZNK5arrow15BasicDecimal1288low_bitsEv(ptr noundef nonnull align 8 dereferenceable(16) %8)
  %14 = load ptr, ptr %4, align 8, !tbaa !154
  %15 = call noundef i64 @_ZNK5arrow15BasicDecimal1288low_bitsEv(ptr noundef nonnull align 8 dereferenceable(16) %14)
  %16 = sub i64 %13, %15
  store i64 %16, ptr %6, align 8, !tbaa !8
  %17 = load i64, ptr %5, align 8, !tbaa !8
  %18 = load i64, ptr %6, align 8, !tbaa !8
  %19 = call noundef i64 @_ZNK5arrow15BasicDecimal1288low_bitsEv(ptr noundef nonnull align 8 dereferenceable(16) %8)
  %20 = icmp ugt i64 %18, %19
  %21 = zext i1 %20 to i64
  %22 = call noundef i64 @_ZN5arrow8internal18SafeSignedSubtractIlEET_S2_S2_(i64 noundef %17, i64 noundef %21)
  store i64 %22, ptr %5, align 8, !tbaa !8
  call void @llvm.lifetime.start.p0(i64 16, ptr %7) #12
  %23 = load i64, ptr %5, align 8, !tbaa !8
  %24 = load i64, ptr %6, align 8, !tbaa !8
  call void @_ZN5arrow15BasicDecimal128C2Elm(ptr noundef nonnull align 8 dereferenceable(16) %7, i64 noundef %23, i64 noundef %24) #12
  call void @llvm.memcpy.p0.p0.i64(ptr align 8 %8, ptr align 8 %7, i64 16, i1 false)
  call void @llvm.lifetime.end.p0(i64 16, ptr %7) #12
  call void @llvm.lifetime.end.p0(i64 8, ptr %6) #12
  call void @llvm.lifetime.end.p0(i64 8, ptr %5) #12
  ret ptr %8
}